target datalayout = "e-m:e-p270:32:32-p271:32:32-p272:64:64-i64:64-i128:128-f80:128-n8:16:32:64-S128"
target triple = "x86_64-pc-linux-gnu"

%struct.Aig_Obj_t_ = type { %union.anon, ptr, ptr, i64, i32, i32, %union.anon.0 }
%union.anon = type { ptr }
%union.anon.0 = type { ptr }
%struct.Aig_Man_t_ = type { ptr, ptr, ptr, ptr, ptr, ptr, ptr, %struct.Aig_Obj_t_, i32, i32, i32, i32, i32, i32, [7 x i32], i32, ptr, i32, ptr, i32, ptr, i32, i32, i32, ptr, i32, i32, i32, i32, i32, ptr, ptr, i32, ptr, ptr, i32, ptr, ptr, i32, i32, i32, ptr, ptr, ptr, ptr, ptr, ptr, ptr, ptr, ptr, ptr, ptr, ptr, ptr, ptr, i32, ptr, ptr, ptr, ptr, i32, i64, i64, i64, ptr, ptr }
%struct.Vec_Int_t_ = type { i32, i32, ptr }
%struct.Vec_Ptr_t_ = type { i32, i32, ptr }

@.str = private unnamed_addr constant [4 x i8] c"%s\0A\00", align 1

; Function Attrs: nounwind uwtable
define internal ptr @Vec_PtrEntry(ptr noundef %0, i32 noundef %1) #0 {
  %3 = alloca ptr, align 8
  %4 = alloca i32, align 4
  store ptr %0, ptr %3, align 8
  store i32 %1, ptr %4, align 4
  %5 = load ptr, ptr %3, align 8
  %6 = getelementptr inbounds %struct.Vec_Ptr_t_, ptr %5, i32 0, i32 2
  %7 = load ptr, ptr %6, align 8
  %8 = load i32, ptr %4, align 4
  %9 = sext i32 %8 to i64
  %10 = getelementptr inbounds ptr, ptr %7, i64 %9
  %11 = load ptr, ptr %10, align 8
  ret ptr %11
}

; Function Attrs: nounwind uwtable
define internal i32 @Aig_ObjCioId(ptr noundef %0) #0 {
  %2 = alloca ptr, align 8
  store ptr %0, ptr %2, align 8
  %3 = load ptr, ptr %2, align 8
  %4 = getelementptr inbounds %struct.Aig_Obj_t_, ptr %3, i32 0, i32 0
  %5 = load i32, ptr %4, align 8
  ret i32 %5
}

; Function Attrs: nounwind uwtable
define internal ptr @Aig_ManObj(ptr noundef %0, i32 noundef %1) #0 {
  %3 = alloca ptr, align 8
  %4 = alloca i32, align 4
  store ptr %0, ptr %3, align 8
  store i32 %1, ptr %4, align 4
  %5 = load ptr, ptr %3, align 8
  %6 = getelementptr inbounds %struct.Aig_Man_t_, ptr %5, i32 0, i32 4
  %7 = load ptr, ptr %6, align 8
  %8 = icmp ne ptr %7, null
  br i1 %8, label %9, label %15

9:                                                ; preds = %2
  %10 = load ptr, ptr %3, align 8
  %11 = getelementptr inbounds %struct.Aig_Man_t_, ptr %10, i32 0, i32 4
  %12 = load ptr, ptr %11, align 8
  %13 = load i32, ptr %4, align 4
  %14 = call ptr @Vec_PtrEntry(ptr noundef %12, i32 noundef %13)
  br label %16

15:                                               ; preds = %2
  br label %16

16:                                               ; preds = %15, %9
  %17 = phi ptr [ %14, %9 ], [ null, %15 ]
  ret ptr %17
}

; Function Attrs: nounwind uwtable
define internal i32 @Vec_IntEntry(ptr noundef %0, i32 noundef %1) #0 {
  %3 = alloca ptr, align 8
  %4 = alloca i32, align 4
  store ptr %0, ptr %3, align 8
  store i32 %1, ptr %4, align 4
  %5 = load ptr, ptr %3, align 8
  %6 = getelementptr inbounds %struct.Vec_Int_t_, ptr %5, i32 0, i32 2
  %7 = load ptr, ptr %6, align 8
  %8 = load i32, ptr %4, align 4
  %9 = sext i32 %8 to i64
  %10 = getelementptr inbounds i32, ptr %7, i64 %9
  %11 = load i32, ptr %10, align 4
  ret i32 %11
}

; Function Attrs: nounwind uwtable
define internal i32 @Vec_IntSize(ptr noundef %0) #0 {
  %2 = alloca ptr, align 8
  store ptr %0, ptr %2, align 8
  %3 = load ptr, ptr %2, align 8
  %4 = getelementptr inbounds %struct.Vec_Int_t_, ptr %3, i32 0, i32 1
  %5 = load i32, ptr %4, align 4
  ret i32 %5
}

; Function Attrs: nounwind uwtable
define internal i32 @Aig_ManCiNum(ptr noundef %0) #0 {
  %2 = alloca ptr, align 8
  store ptr %0, ptr %2, align 8
  %3 = load ptr, ptr %2, align 8
  %4 = getelementptr inbounds %struct.Aig_Man_t_, ptr %3, i32 0, i32 14
  %5 = getelementptr inbounds [7 x i32], ptr %4, i64 0, i64 2
  %6 = load i32, ptr %5, align 8
  ret i32 %6
}

; Function Attrs: nounwind uwtable
define void @Pdr_ManPrintCex(ptr noundef %0, ptr noundef %1, ptr noundef %2, ptr noundef %3) #0 {
  %5 = alloca ptr, align 8
  %6 = alloca ptr, align 8
  %7 = alloca ptr, align 8
  %8 = alloca ptr, align 8
  %9 = alloca ptr, align 8
  %10 = alloca i32, align 4
  %11 = alloca ptr, align 8
  store ptr %0, ptr %5, align 8
  store ptr %1, ptr %6, align 8
  store ptr %2, ptr %7, align 8
  store ptr %3, ptr %8, align 8
  %12 = load ptr, ptr %5, align 8
  %13 = call i32 @Aig_ManCiNum(ptr noundef %12)
  %14 = add nsw i32 %13, 1
  %15 = sext i32 %14 to i64
  %16 = mul i64 1, %15
  %17 = call noalias ptr @malloc(i64 noundef %16) #7
  store ptr %17, ptr %11, align 8
  store i32 0, ptr %10, align 4
  br label %18

18:                                               ; preds = %28, %4
  %19 = load i32, ptr %10, align 4
  %20 = load ptr, ptr %5, align 8
  %21 = call i32 @Aig_ManCiNum(ptr noundef %20)
  %22 = icmp slt i32 %19, %21
  br i1 %22, label %23, label %31

23:                                               ; preds = %18
  %24 = load ptr, ptr %11, align 8
  %25 = load i32, ptr %10, align 4
  %26 = sext i32 %25 to i64
  %27 = getelementptr inbounds i8, ptr %24, i64 %26
  store i8 45, ptr %27, align 1
  br label %28

28:                                               ; preds = %23
  %29 = load i32, ptr %10, align 4
  %30 = add nsw i32 %29, 1
  store i32 %30, ptr %10, align 4
  br label %18, !llvm.loop !17

31:                                               ; preds = %18
  %32 = load ptr, ptr %11, align 8
  %33 = load i32, ptr %10, align 4
  %34 = sext i32 %33 to i64
  %35 = getelementptr inbounds i8, ptr %32, i64 %34
  store i8 0, ptr %35, align 1
  store i32 0, ptr %10, align 4
  br label %36

36:                                               ; preds = %61, %31
  %37 = load i32, ptr %10, align 4
  %38 = load ptr, ptr %6, align 8
  %39 = call i32 @Vec_IntSize(ptr noundef %38)
  %40 = icmp slt i32 %37, %39
  br i1 %40, label %41, label %47

41:                                               ; preds = %36
  %42 = load ptr, ptr %5, align 8
  %43 = load ptr, ptr %6, align 8
  %44 = load i32, ptr %10, align 4
  %45 = call i32 @Vec_IntEntry(ptr noundef %43, i32 noundef %44)
  %46 = call ptr @Aig_ManObj(ptr noundef %42, i32 noundef %45)
  store ptr %46, ptr %9, align 8
  br label %47

47:                                               ; preds = %41, %36
  %48 = phi i1 [ false, %36 ], [ true, %41 ]
  br i1 %48, label %49, label %64

49:                                               ; preds = %47
  %50 = load ptr, ptr %7, align 8
  %51 = load i32, ptr %10, align 4
  %52 = call i32 @Vec_IntEntry(ptr noundef %50, i32 noundef %51)
  %53 = icmp ne i32 %52, 0
  %54 = select i1 %53, i32 49, i32 48
  %55 = trunc i32 %54 to i8
  %56 = load ptr, ptr %11, align 8
  %57 = load ptr, ptr %9, align 8
  %58 = call i32 @Aig_ObjCioId(ptr noundef %57)
  %59 = sext i32 %58 to i64
  %60 = getelementptr inbounds i8, ptr %56, i64 %59
  store i8 %55, ptr %60, align 1
  br label %61

61:                                               ; preds = %49
  %62 = load i32, ptr %10, align 4
  %63 = add nsw i32 %62, 1
  store i32 %63, ptr %10, align 4
  br label %36, !llvm.loop !18

64:                                               ; preds = %47
  %65 = load ptr, ptr %8, align 8
  %66 = icmp ne ptr %65, null
  br i1 %66, label %67, label %91

67:                                               ; preds = %64
  store i32 0, ptr %10, align 4
  br label %68

68:                                               ; preds = %87, %67
  %69 = load i32, ptr %10, align 4
  %70 = load ptr, ptr %8, align 8
  %71 = call i32 @Vec_IntSize(ptr noundef %70)
  %72 = icmp slt i32 %69, %71
  br i1 %72, label %73, label %79

73:                                               ; preds = %68
  %74 = load ptr, ptr %5, align 8
  %75 = load ptr, ptr %8, align 8
  %76 = load i32, ptr %10, align 4
  %77 = call i32 @Vec_IntEntry(ptr noundef %75, i32 noundef %76)
  %78 = call ptr @Aig_ManObj(ptr noundef %74, i32 noundef %77)
  store ptr %78, ptr %9, align 8
  br label %79

79:                                               ; preds = %73, %68
  %80 = phi i1 [ false, %68 ], [ true, %73 ]
  br i1 %80, label %81, label %90

81:                                               ; preds = %79
  %82 = load ptr, ptr %11, align 8
  %83 = load ptr, ptr %9, align 8
  %84 = call i32 @Aig_ObjCioId(ptr noundef %83)
  %85 = sext i32 %84 to i64
  %86 = getelementptr inbounds i8, ptr %82, i64 %85
  store i8 120, ptr %86, align 1
  br label %87

87:                                               ; preds = %81
  %88 = load i32, ptr %10, align 4
  %89 = add nsw i32 %88, 1
  store i32 %89, ptr %10, align 4
  br label %68, !llvm.loop !19

90:                                               ; preds = %79
  br label %91

91:                                               ; preds = %90, %64
  %92 = load ptr, ptr %11, align 8
  call void (i32, ptr, ...) @Abc_Print(i32 noundef 1, ptr noundef @.str, ptr noundef %92)
  %93 = load ptr, ptr %11, align 8
  %94 = icmp ne ptr %93, null
  br i1 %94, label %95, label %97

95:                                               ; preds = %91
  %96 = load ptr, ptr %11, align 8
  call void @free(ptr noundef %96) #8
  store ptr null, ptr %11, align 8
  br label %98

97:                                               ; preds = %91
  br label %98

98:                                               ; preds = %97, %95
  ret void
}