; Function Attrs: nounwind uwtable
define void @Pdr_ManPrintCex(ptr noundef readonly captures(none) %0, ptr noundef readonly captures(none) %1, ptr noundef readonly captures(none) %2, ptr noundef readonly %3) local_unnamed_addr #0 {
  %5 = getelementptr i8, ptr %0, i64 136
  %.val43 = load i32, ptr %5, align 8
  %6 = add nsw i32 %.val43, 1
  %7 = sext i32 %6 to i64
  %8 = tail call noalias ptr @malloc(i64 noundef %7) #12
  %9 = icmp sgt i32 %.val43, 0
  br i1 %9, label %.lr.ph.preheader, label %._crit_edge

.lr.ph.preheader:                                 ; preds = %4
  %10 = zext nneg i32 %.val43 to i64
  tail call void @llvm.memset.p0.i64(ptr align 1 %8, i8 45, i64 %10, i1 false)
  %11 = zext nneg i32 %.val43 to i64
  br label %._crit_edge

._crit_edge:                                      ; preds = %.lr.ph.preheader, %4
  %.0.lcssa = phi i64 [ 0, %4 ], [ %11, %.lr.ph.preheader ]
  %12 = getelementptr inbounds nuw i8, ptr %8, i64 %.0.lcssa
  store i8 0, ptr %12, align 1
  %13 = getelementptr i8, ptr %1, i64 4
  %.val35 = load i32, ptr %13, align 4
  %14 = icmp sgt i32 %.val35, 0
  br i1 %14, label %Aig_ManObj.exit.lr.ph, label %.critedge

Aig_ManObj.exit.lr.ph:                            ; preds = %._crit_edge
  %15 = getelementptr i8, ptr %1, i64 8
  %.val38 = load ptr, ptr %15, align 8
  %16 = getelementptr i8, ptr %0, i64 32
  %.val40 = load ptr, ptr %16, align 8, !nonnull !6, !noundef !6
  %17 = getelementptr i8, ptr %.val40, i64 8
  %18 = getelementptr i8, ptr %2, i64 8
  %.val37 = load ptr, ptr %18, align 8
  %wide.trip.count53 = zext nneg i32 %.val35 to i64
  %.val.i.pre = load ptr, ptr %17, align 8
  br label %Aig_ManObj.exit

Aig_ManObj.exit:                                  ; preds = %Aig_ManObj.exit.lr.ph, %Aig_ManObj.exit
  %indvars.iv = phi i64 [ 0, %Aig_ManObj.exit.lr.ph ], [ %indvars.iv.next, %Aig_ManObj.exit ]
  %19 = getelementptr inbounds nuw i32, ptr %.val38, i64 %indvars.iv
  %20 = load i32, ptr %19, align 4
  %21 = sext i32 %20 to i64
  %22 = getelementptr inbounds ptr, ptr %.val.i.pre, i64 %21
  %23 = load ptr, ptr %22, align 8
  %24 = getelementptr inbounds nuw i32, ptr %.val37, i64 %indvars.iv
  %25 = load i32, ptr %24, align 4
  %.not34 = icmp eq i32 %25, 0
  %26 = select i1 %.not34, i8 48, i8 49
  %.val42 = load i32, ptr %23, align 8
  %27 = sext i32 %.val42 to i64
  %28 = getelementptr inbounds i8, ptr %8, i64 %27
  store i8 %26, ptr %28, align 1
  %indvars.iv.next = add nuw nsw i64 %indvars.iv, 1
  %exitcond.not = icmp eq i64 %indvars.iv.next, %wide.trip.count53
  br i1 %exitcond.not, label %.critedge, label %Aig_ManObj.exit, !llvm.loop !18

.critedge:                                        ; preds = %Aig_ManObj.exit, %._crit_edge
  %.not = icmp eq ptr %3, null
  br i1 %.not, label %.loopexit, label %.preheader

.preheader:                                       ; preds = %.critedge
  %29 = getelementptr i8, ptr %3, i64 4
  %.val = load i32, ptr %29, align 4
  %30 = icmp sgt i32 %.val, 0
  br i1 %30, label %Aig_ManObj.exit47.lr.ph, label %.loopexit

Aig_ManObj.exit47.lr.ph:                          ; preds = %.preheader
  %31 = getelementptr i8, ptr %3, i64 8
  %.val36 = load ptr, ptr %31, align 8
  %32 = getelementptr i8, ptr %0, i64 32
  %.val39 = load ptr, ptr %32, align 8, !nonnull !6, !noundef !6
  %33 = getelementptr i8, ptr %.val39, i64 8
  %wide.trip.count57 = zext nneg i32 %.val to i64
  %.val.i46.pre = load ptr, ptr %33, align 8
  br label %Aig_ManObj.exit47

Aig_ManObj.exit47:                                ; preds = %Aig_ManObj.exit47.lr.ph, %Aig_ManObj.exit47
  %indvars.iv54 = phi i64 [ 0, %Aig_ManObj.exit47.lr.ph ], [ %indvars.iv.next55, %Aig_ManObj.exit47 ]
  %34 = getelementptr inbounds nuw i32, ptr %.val36, i64 %indvars.iv54
  %35 = load i32, ptr %34, align 4
  %36 = sext i32 %35 to i64
  %37 = getelementptr inbounds ptr, ptr %.val.i46.pre, i64 %36
  %38 = load ptr, ptr %37, align 8
  %.val41 = load i32, ptr %38, align 8
  %39 = sext i32 %.val41 to i64
  %40 = getelementptr inbounds i8, ptr %8, i64 %39
  store i8 120, ptr %40, align 1
  %indvars.iv.next55 = add nuw nsw i64 %indvars.iv54, 1
  %exitcond58.not = icmp eq i64 %indvars.iv.next55, %wide.trip.count57
  br i1 %exitcond58.not, label %.loopexit, label %Aig_ManObj.exit47, !llvm.loop !19

.loopexit:                                        ; preds = %Aig_ManObj.exit47, %.preheader, %.critedge
  tail call void (i32, ptr, ...) @Abc_Print(i32 poison, ptr noundef nonnull @.str, ptr noundef nonnull %8)
  tail call void @free(ptr noundef nonnull %8) #13
  ret void
}